target datalayout = "e-m:e-p270:32:32-p271:32:32-p272:64:64-i64:64-i128:128-f80:128-n8:16:32:64-S128"
target triple = "x86_64-unknown-linux-gnu"

%"class.node::MutexBase" = type { %union.pthread_mutex_t }
%union.pthread_mutex_t = type { %struct.__pthread_mutex_s }
%struct.__pthread_mutex_s = type { i32, i32, i32, i32, i32, i16, i16, %struct.__pthread_internal_list }
%struct.__pthread_internal_list = type { ptr, ptr }
%"class.v8::IndirectHandleBase" = type { ptr }
%"class.node::MutexBase<node::LibuvMutexTraits>::ScopedLock" = type { ptr }
%"class.v8::Local.409" = type { %"class.v8::LocalBase.410" }
%"class.v8::LocalBase.410" = type { %"class.v8::IndirectHandleBase" }
%"class.v8::ReturnValue" = type { ptr }

@.str = private unnamed_addr constant [5 x i8] c"fips\00", align 1
@_ZN4node6cryptoL10fips_mutexE = internal global %"class.node::MutexBase" zeroinitializer, align 8
@_ZN4node11per_process17cli_options_mutexE = external global %"class.node::MutexBase", align 8

; Function Attrs: mustprogress nounwind uwtable
define linkonce_odr dso_local void @_ZN4node16LibuvMutexTraits12mutex_unlockEP15pthread_mutex_t(ptr noundef %mutex) #4 comdat align 2 {
entry:
  %mutex.addr = alloca ptr, align 8
  store ptr %mutex, ptr %mutex.addr, align 8
  %0 = load ptr, ptr %mutex.addr, align 8
  call void @uv_mutex_unlock(ptr noundef %0)
  ret void
}

; Function Attrs: mustprogress nounwind uwtable
define linkonce_odr dso_local void @_ZN4node16LibuvMutexTraits10mutex_lockEP15pthread_mutex_t(ptr noundef %mutex) #4 comdat align 2 {
entry:
  %mutex.addr = alloca ptr, align 8
  store ptr %mutex, ptr %mutex.addr, align 8
  %0 = load ptr, ptr %mutex.addr, align 8
  call void @uv_mutex_lock(ptr noundef %0)
  ret void
}

; Function Attrs: mustprogress nounwind uwtable
define linkonce_odr dso_local void @_ZN4node9MutexBaseINS_16LibuvMutexTraitsEE10ScopedLockD2Ev(ptr noundef nonnull align 8 dereferenceable(8) %this) unnamed_addr #4 comdat align 2 {
entry:
  %this.addr = alloca ptr, align 8
  store ptr %this, ptr %this.addr, align 8
  %this1 = load ptr, ptr %this.addr, align 8
  %mutex_ = getelementptr inbounds %"class.node::MutexBase<node::LibuvMutexTraits>::ScopedLock", ptr %this1, i32 0, i32 0
  %0 = load ptr, ptr %mutex_, align 8
  %mutex_2 = getelementptr inbounds %"class.node::MutexBase", ptr %0, i32 0, i32 0
  call void @_ZN4node16LibuvMutexTraits12mutex_unlockEP15pthread_mutex_t(ptr noundef %mutex_2)
  ret void
}

; Function Attrs: mustprogress nounwind uwtable
define linkonce_odr dso_local void @_ZN4node9MutexBaseINS_16LibuvMutexTraitsEE10ScopedLockC2ERKS2_(ptr noundef nonnull align 8 dereferenceable(8) %this, ptr noundef nonnull align 8 dereferenceable(40) %mutex) unnamed_addr #4 comdat align 2 {
entry:
  %this.addr = alloca ptr, align 8
  %mutex.addr = alloca ptr, align 8
  store ptr %this, ptr %this.addr, align 8
  store ptr %mutex, ptr %mutex.addr, align 8
  %this1 = load ptr, ptr %this.addr, align 8
  %mutex_ = getelementptr inbounds %"class.node::MutexBase<node::LibuvMutexTraits>::ScopedLock", ptr %this1, i32 0, i32 0
  %0 = load ptr, ptr %mutex.addr, align 8
  store ptr %0, ptr %mutex_, align 8
  %mutex_2 = getelementptr inbounds %"class.node::MutexBase<node::LibuvMutexTraits>::ScopedLock", ptr %this1, i32 0, i32 0
  %1 = load ptr, ptr %mutex_2, align 8
  %mutex_3 = getelementptr inbounds %"class.node::MutexBase", ptr %1, i32 0, i32 0
  call void @_ZN4node16LibuvMutexTraits10mutex_lockEP15pthread_mutex_t(ptr noundef %mutex_3)
  ret void
}

; Function Attrs: mustprogress nounwind uwtable
define dso_local void @_ZN4node6crypto14TestFipsCryptoERKN2v820FunctionCallbackInfoINS1_5ValueEEE(ptr noundef nonnull align 8 dereferenceable(20) %args) #4 {
entry:
  %value.addr.i21 = alloca i32, align 4
  %value.addr.i19 = alloca i64, align 8
  %isolate.addr.i15.i = alloca ptr, align 8
  %index.addr.i16.i = alloca i32, align 4
  %addr.i.i = alloca i64, align 8
  %this.addr.i13.i = alloca ptr, align 8
  %isolate.addr.i.i = alloca ptr, align 8
  %index.addr.i.i = alloca i32, align 4
  %this.addr.i10.i = alloca ptr, align 8
  %this.addr.i8.i = alloca ptr, align 8
  %this.addr.i.i = alloca ptr, align 8
  %handle.i = alloca %"class.v8::Local.409", align 8
  %this.addr.i15 = alloca ptr, align 8
  %value.addr.i14 = alloca i32, align 4
  %value.addr.i = alloca i64, align 8
  %this.addr.i11 = alloca ptr, align 8
  %slot.addr.i = alloca ptr, align 8
  %this.addr.i8 = alloca ptr, align 8
  %this.addr.i6 = alloca ptr, align 8
  %i.addr.i = alloca i32, align 4
  %agg.tmp.i = alloca %"class.v8::Local.409", align 8
  %retval.i = alloca %"class.v8::ReturnValue", align 8
  %this.addr.i = alloca ptr, align 8
  %args.addr = alloca ptr, align 8
  %lock = alloca %"class.node::MutexBase<node::LibuvMutexTraits>::ScopedLock", align 8
  %fips_lock = alloca %"class.node::MutexBase<node::LibuvMutexTraits>::ScopedLock", align 8
  %fips_provider = alloca ptr, align 8
  %enabled = alloca i32, align 4
  %ref.tmp = alloca %"class.v8::ReturnValue", align 8
  store ptr %args, ptr %args.addr, align 8
  call void @_ZN4node9MutexBaseINS_16LibuvMutexTraitsEE10ScopedLockC2ERKS2_(ptr noundef nonnull align 8 dereferenceable(8) %lock, ptr noundef nonnull align 8 dereferenceable(40) @_ZN4node11per_process17cli_options_mutexE)
  call void @_ZN4node9MutexBaseINS_16LibuvMutexTraitsEE10ScopedLockC2ERKS2_(ptr noundef nonnull align 8 dereferenceable(8) %fips_lock, ptr noundef nonnull align 8 dereferenceable(40) @_ZN4node6cryptoL10fips_mutexE)
  store ptr null, ptr %fips_provider, align 8
  %call = call i32 @OSSL_PROVIDER_available(ptr noundef null, ptr noundef @.str)
  %tobool = icmp ne i32 %call, 0
  br i1 %tobool, label %if.then, label %if.end

if.then:                                          ; preds = %entry
  %call1 = call ptr @OSSL_PROVIDER_load(ptr noundef null, ptr noundef @.str)
  store ptr %call1, ptr %fips_provider, align 8
  br label %if.end

if.end:                                           ; preds = %if.then, %entry
  %0 = load ptr, ptr %fips_provider, align 8
  %cmp = icmp eq ptr %0, null
  br i1 %cmp, label %cond.true, label %cond.false

cond.true:                                        ; preds = %if.end
  br label %cond.end

cond.false:                                       ; preds = %if.end
  %1 = load ptr, ptr %fips_provider, align 8
  %call2 = call i32 @OSSL_PROVIDER_self_test(ptr noundef %1)
  %tobool3 = icmp ne i32 %call2, 0
  %cond = select i1 %tobool3, i32 1, i32 0
  br label %cond.end

cond.end:                                         ; preds = %cond.false, %cond.true
  %cond4 = phi i32 [ 0, %cond.true ], [ %cond, %cond.false ]
  store i32 %cond4, ptr %enabled, align 4
  %2 = load ptr, ptr %args.addr, align 8
  store ptr %2, ptr %this.addr.i, align 8
  %this1.i = load ptr, ptr %this.addr.i, align 8
  %3 = load ptr, ptr %this1.i, align 8
  %arrayidx.i = getelementptr inbounds i64, ptr %3, i64 3
  store ptr %retval.i, ptr %this.addr.i11, align 8
  store ptr %arrayidx.i, ptr %slot.addr.i, align 8
  %this1.i12 = load ptr, ptr %this.addr.i11, align 8
  %4 = load ptr, ptr %slot.addr.i, align 8
  store ptr %4, ptr %this1.i12, align 8
  %5 = load ptr, ptr %retval.i, align 8
  %coerce.dive = getelementptr inbounds %"class.v8::ReturnValue", ptr %ref.tmp, i32 0, i32 0
  store ptr %5, ptr %coerce.dive, align 8
  %6 = load i32, ptr %enabled, align 4
  store ptr %ref.tmp, ptr %this.addr.i6, align 8
  store i32 %6, ptr %i.addr.i, align 4
  %this1.i7 = load ptr, ptr %this.addr.i6, align 8
  %7 = load i32, ptr %i.addr.i, align 4
  %conv.i = sext i32 %7 to i64
  store i64 %conv.i, ptr %value.addr.i, align 8
  %8 = load i64, ptr %value.addr.i, align 8
  store i64 %8, ptr %value.addr.i19, align 8
  %9 = load i64, ptr %value.addr.i19, align 8
  %10 = load i64, ptr %value.addr.i19, align 8
  %conv.i20 = trunc i64 %10 to i32
  %conv1.i = sext i32 %conv.i20 to i64
  %cmp.i = icmp eq i64 %9, %conv1.i
  br i1 %cmp.i, label %if.then.i, label %if.end.i

if.then.i:                                        ; preds = %cond.end
  %11 = load i32, ptr %i.addr.i, align 4
  store i32 %11, ptr %value.addr.i14, align 4
  %12 = load i32, ptr %value.addr.i14, align 4
  store i32 %12, ptr %value.addr.i21, align 4
  %13 = load i32, ptr %value.addr.i21, align 4
  %conv.i22 = sext i32 %13 to i64
  %shl.i = shl i64 %conv.i22, 32
  %14 = load ptr, ptr %this1.i7, align 8
  store i64 %shl.i, ptr %14, align 8
  br label %_ZN2v811ReturnValueINS_5ValueEE3SetEi.exit

if.end.i:                                         ; preds = %cond.end
  store ptr %this1.i7, ptr %this.addr.i8, align 8
  %this1.i9 = load ptr, ptr %this.addr.i8, align 8
  %15 = load ptr, ptr %this1.i9, align 8
  %arrayidx.i10 = getelementptr inbounds i64, ptr %15, i64 -2
  %16 = load ptr, ptr %arrayidx.i10, align 8
  %17 = load i32, ptr %i.addr.i, align 4
  %call6.i = call ptr @_ZN2v87Integer3NewEPNS_7IsolateEi(ptr noundef %16, i32 noundef %17) #3
  store ptr %call6.i, ptr %agg.tmp.i, align 8
  %18 = load ptr, ptr %agg.tmp.i, align 8
  store ptr %18, ptr %handle.i, align 8
  store ptr %this1.i7, ptr %this.addr.i15, align 8
  %this3.i = load ptr, ptr %this.addr.i15, align 8
  store ptr %handle.i, ptr %this.addr.i.i, align 8
  %this1.i.i = load ptr, ptr %this.addr.i.i, align 8
  %19 = load ptr, ptr %this1.i.i, align 8
  %cmp.i.i = icmp eq ptr %19, null
  br i1 %cmp.i.i, label %if.then.i18, label %if.else.i

if.then.i18:                                      ; preds = %if.end.i
  store ptr %this3.i, ptr %this.addr.i8.i, align 8
  %this1.i9.i = load ptr, ptr %this.addr.i8.i, align 8
  store ptr %this1.i9.i, ptr %this.addr.i13.i, align 8
  %this1.i14.i = load ptr, ptr %this.addr.i13.i, align 8
  %20 = load ptr, ptr %this1.i14.i, align 8
  %arrayidx.i.i = getelementptr inbounds i64, ptr %20, i64 -2
  %21 = load ptr, ptr %arrayidx.i.i, align 8
  store ptr %21, ptr %isolate.addr.i.i, align 8
  store i32 5, ptr %index.addr.i.i, align 4
  %22 = load ptr, ptr %isolate.addr.i.i, align 8
  %23 = load i32, ptr %index.addr.i.i, align 4
  store ptr %22, ptr %isolate.addr.i15.i, align 8
  store i32 %23, ptr %index.addr.i16.i, align 4
  %24 = load ptr, ptr %isolate.addr.i15.i, align 8
  %25 = ptrtoint ptr %24 to i64
  %add.i.i = add i64 %25, 576
  %26 = load i32, ptr %index.addr.i16.i, align 4
  %mul.i.i = mul nsw i32 %26, 8
  %conv.i.i = sext i32 %mul.i.i to i64
  %add1.i.i = add i64 %add.i.i, %conv.i.i
  store i64 %add1.i.i, ptr %addr.i.i, align 8
  %27 = load i64, ptr %addr.i.i, align 8
  %28 = inttoptr i64 %27 to ptr
  %29 = load i64, ptr %28, align 8
  %30 = load ptr, ptr %this3.i, align 8
  store i64 %29, ptr %30, align 8
  br label %_ZN2v811ReturnValueINS_5ValueEE3SetINS_7IntegerEEEvNS_5LocalIT_EE.exit

if.else.i:                                        ; preds = %if.end.i
  store ptr %handle.i, ptr %this.addr.i10.i, align 8
  %this1.i11.i = load ptr, ptr %this.addr.i10.i, align 8
  %31 = load ptr, ptr %this1.i11.i, align 8
  %32 = load i64, ptr %31, align 8
  %33 = load ptr, ptr %this3.i, align 8
  store i64 %32, ptr %33, align 8
  br label %_ZN2v811ReturnValueINS_5ValueEE3SetINS_7IntegerEEEvNS_5LocalIT_EE.exit

_ZN2v811ReturnValueINS_5ValueEE3SetINS_7IntegerEEEvNS_5LocalIT_EE.exit: ; preds = %if.else.i, %if.then.i18
  br label %_ZN2v811ReturnValueINS_5ValueEE3SetEi.exit

_ZN2v811ReturnValueINS_5ValueEE3SetEi.exit:       ; preds = %_ZN2v811ReturnValueINS_5ValueEE3SetINS_7IntegerEEEvNS_5LocalIT_EE.exit, %if.then.i
  call void @_ZN4node9MutexBaseINS_16LibuvMutexTraitsEE10ScopedLockD2Ev(ptr noundef nonnull align 8 dereferenceable(8) %fips_lock) #3
  call void @_ZN4node9MutexBaseINS_16LibuvMutexTraitsEE10ScopedLockD2Ev(ptr noundef nonnull align 8 dereferenceable(8) %lock) #3
  ret void
}