; Function Attrs: mustprogress nounwind uwtable
define dso_local void @_ZN4node6crypto14TestFipsCryptoERKN2v820FunctionCallbackInfoINS1_5ValueEEE(ptr nocapture noundef nonnull readonly align 8 dereferenceable(20) %args) #4 {
entry:
  tail call void @uv_mutex_lock(ptr noundef nonnull @_ZN4node11per_process17cli_options_mutexE) #25
  tail call void @uv_mutex_lock(ptr noundef nonnull @_ZN4node6cryptoL10fips_mutexE) #25
  %call = tail call i32 @OSSL_PROVIDER_available(ptr noundef null, ptr noundef nonnull @.str) #25
  %tobool.not = icmp eq i32 %call, 0
  br i1 %tobool.not, label %if.then.i, label %if.end

if.end:                                           ; preds = %entry
  %call1 = tail call ptr @OSSL_PROVIDER_load(ptr noundef null, ptr noundef nonnull @.str) #25
  %cmp = icmp eq ptr %call1, null
  br i1 %cmp, label %if.then.i, label %cond.false

cond.false:                                       ; preds = %if.end
  %call2 = tail call i32 @OSSL_PROVIDER_self_test(ptr noundef nonnull %call1) #25
  %tobool3.not.not = icmp eq i32 %call2, 0
  %0 = select i1 %tobool3.not.not, i64 0, i64 4294967296
  br label %if.then.i

if.then.i:                                        ; preds = %entry, %cond.false, %if.end
  %cond4 = phi i64 [ %0, %cond.false ], [ 0, %if.end ], [ 0, %entry ]
  %1 = load ptr, ptr %args, align 8
  %arrayidx.i = getelementptr inbounds i8, ptr %1, i64 24
  store i64 %cond4, ptr %arrayidx.i, align 8
  tail call void @uv_mutex_unlock(ptr noundef nonnull @_ZN4node6cryptoL10fips_mutexE) #25
  tail call void @uv_mutex_unlock(ptr noundef nonnull @_ZN4node11per_process17cli_options_mutexE) #25
  ret void
}